; Function Attrs: mustprogress nofree norecurse nosync nounwind willreturn memory(read, inaccessiblemem: none) uwtable
define noundef ptr @_ZNK5draco10PointCloud22GetAttributeByUniqueIdEj(ptr nocapture noundef nonnull readonly align 8 dereferenceable(164) %0, i32 noundef %1) local_unnamed_addr #5 align 2 {
  %3 = getelementptr inbounds i8, ptr %0, i64 16
  %4 = getelementptr inbounds i8, ptr %0, i64 24
  %5 = load ptr, ptr %4, align 8
  %6 = load ptr, ptr %3, align 8
  %.not.i = icmp eq ptr %5, %6
  br i1 %.not.i, label %_ZNK5draco10PointCloud24GetAttributeIdByUniqueIdEj.exit.thread, label %.lr.ph.preheader.i

.lr.ph.preheader.i:                               ; preds = %2
  %7 = ptrtoint ptr %5 to i64
  %8 = ptrtoint ptr %6 to i64
  %9 = sub i64 %7, %8
  %10 = ashr exact i64 %9, 3
  %umax.i = tail call i64 @llvm.umax.i64(i64 %10, i64 1)
  br label %.lr.ph.i

.lr.ph.i:                                         ; preds = %16, %.lr.ph.preheader.i
  %.08.i = phi i64 [ %17, %16 ], [ 0, %.lr.ph.preheader.i ]
  %11 = getelementptr inbounds %"class.std::unique_ptr.7", ptr %6, i64 %.08.i
  %12 = load ptr, ptr %11, align 8
  %13 = getelementptr inbounds i8, ptr %12, i64 60
  %14 = load i32, ptr %13, align 4
  %15 = icmp eq i32 %14, %1
  br i1 %15, label %_ZNK5draco10PointCloud24GetAttributeIdByUniqueIdEj.exit, label %16

16:                                               ; preds = %.lr.ph.i
  %17 = add nuw i64 %.08.i, 1
  %exitcond.not.i = icmp eq i64 %17, %umax.i
  br i1 %exitcond.not.i, label %_ZNK5draco10PointCloud24GetAttributeIdByUniqueIdEj.exit.thread, label %.lr.ph.i, !llvm.loop !6

_ZNK5draco10PointCloud24GetAttributeIdByUniqueIdEj.exit: ; preds = %.lr.ph.i
  %18 = and i64 %.08.i, 4294967295
  %19 = icmp eq i64 %18, 4294967295
  br i1 %19, label %_ZNK5draco10PointCloud24GetAttributeIdByUniqueIdEj.exit.thread, label %20

20:                                               ; preds = %_ZNK5draco10PointCloud24GetAttributeIdByUniqueIdEj.exit
  %sext = shl i64 %.08.i, 32
  %21 = ashr exact i64 %sext, 32
  %22 = getelementptr inbounds %"class.std::unique_ptr.7", ptr %6, i64 %21
  %23 = load ptr, ptr %22, align 8
  br label %_ZNK5draco10PointCloud24GetAttributeIdByUniqueIdEj.exit.thread

_ZNK5draco10PointCloud24GetAttributeIdByUniqueIdEj.exit.thread: ; preds = %16, %2, %_ZNK5draco10PointCloud24GetAttributeIdByUniqueIdEj.exit, %20
  %.0 = phi ptr [ %23, %20 ], [ null, %_ZNK5draco10PointCloud24GetAttributeIdByUniqueIdEj.exit ], [ null, %2 ], [ null, %16 ]
  ret ptr %.0
}